target datalayout = "e-m:e-p270:32:32-p271:32:32-p272:64:64-i64:64-i128:128-f80:128-n8:16:32:64-S128"
target triple = "x86_64-pc-linux-gnu"

%"class.cv::Mat" = type { i32, i32, i32, i32, ptr, ptr, ptr, ptr, ptr, ptr, %"struct.cv::MatSize", %"struct.cv::MatStep" }
%"struct.cv::MatSize" = type { ptr }
%"struct.cv::MatStep" = type { ptr, [2 x i64] }
%"class.cv::ccm::Operation" = type { ptr, i8, %"class.cv::Mat", %"class.std::function" }
%"class.std::function" = type { %"class.std::_Function_base", ptr }
%"class.std::_Function_base" = type { %"union.std::_Any_data", ptr }
%"union.std::_Any_data" = type { %"union.std::_Nocopy_types" }
%"union.std::_Nocopy_types" = type { { i64, i64 } }
%"class.__gnu_cxx::__normal_iterator.0" = type { ptr }
%"class.__gnu_cxx::__normal_iterator" = type { ptr }
%"class.cv::ccm::Operations" = type { ptr, %"class.std::vector" }
%"class.std::vector" = type { %"struct.std::_Vector_base" }
%"struct.std::_Vector_base" = type { %"struct.std::_Vector_base<cv::ccm::Operation, std::allocator<cv::ccm::Operation>>::_Vector_impl" }
%"struct.std::_Vector_base<cv::ccm::Operation, std::allocator<cv::ccm::Operation>>::_Vector_impl" = type { %"struct.std::_Vector_base<cv::ccm::Operation, std::allocator<cv::ccm::Operation>>::_Vector_impl_data" }
%"struct.std::_Vector_base<cv::ccm::Operation, std::allocator<cv::ccm::Operation>>::_Vector_impl_data" = type { ptr, ptr, ptr }

; Function Attrs: mustprogress nounwind uwtable
define linkonce_odr hidden void @_ZSt19__iterator_categoryIN9__gnu_cxx17__normal_iteratorIPKN2cv3ccm9OperationESt6vectorIS4_SaIS4_EEEEENSt15iterator_traitsIT_E17iterator_categoryERKSC_(ptr noundef nonnull align 8 dereferenceable(8) %0) #3 comdat {
  %2 = alloca ptr, align 8
  store ptr %0, ptr %2, align 8
  ret void
}

; Function Attrs: mustprogress nounwind uwtable
define linkonce_odr hidden noundef nonnull align 8 dereferenceable(8) ptr @_ZNK9__gnu_cxx17__normal_iteratorIPKN2cv3ccm9OperationESt6vectorIS3_SaIS3_EEE4baseEv(ptr noundef nonnull align 8 dereferenceable(8) %0) #3 comdat align 2 {
  %2 = alloca ptr, align 8
  store ptr %0, ptr %2, align 8
  %3 = load ptr, ptr %2, align 8
  %4 = getelementptr inbounds %"class.__gnu_cxx::__normal_iterator.0", ptr %3, i32 0, i32 0
  ret ptr %4
}

; Function Attrs: mustprogress uwtable
define linkonce_odr hidden void @_ZNSt6vectorIN2cv3ccm9OperationESaIS2_EE18_M_insert_dispatchIN9__gnu_cxx17__normal_iteratorIPKS2_S4_EEEEvNS7_IPS2_S4_EET_SD_St12__false_type(ptr noundef nonnull align 8 dereferenceable(24) %0, ptr %1, ptr %2, ptr %3) #0 comdat align 2 {
  %5 = alloca %"class.__gnu_cxx::__normal_iterator", align 8
  %6 = alloca %"class.__gnu_cxx::__normal_iterator.0", align 8
  %7 = alloca %"class.__gnu_cxx::__normal_iterator.0", align 8
  %8 = alloca ptr, align 8
  %9 = alloca %"class.__gnu_cxx::__normal_iterator", align 8
  %10 = alloca %"class.__gnu_cxx::__normal_iterator.0", align 8
  %11 = alloca %"class.__gnu_cxx::__normal_iterator.0", align 8
  %12 = getelementptr inbounds %"class.__gnu_cxx::__normal_iterator", ptr %5, i32 0, i32 0
  store ptr %1, ptr %12, align 8
  %13 = getelementptr inbounds %"class.__gnu_cxx::__normal_iterator.0", ptr %6, i32 0, i32 0
  store ptr %2, ptr %13, align 8
  %14 = getelementptr inbounds %"class.__gnu_cxx::__normal_iterator.0", ptr %7, i32 0, i32 0
  store ptr %3, ptr %14, align 8
  store ptr %0, ptr %8, align 8
  %15 = load ptr, ptr %8, align 8
  call void @llvm.memcpy.p0.p0.i64(ptr align 8 %9, ptr align 8 %5, i64 8, i1 false)
  call void @llvm.memcpy.p0.p0.i64(ptr align 8 %10, ptr align 8 %6, i64 8, i1 false)
  call void @llvm.memcpy.p0.p0.i64(ptr align 8 %11, ptr align 8 %7, i64 8, i1 false)
  call void @_ZSt19__iterator_categoryIN9__gnu_cxx17__normal_iteratorIPKN2cv3ccm9OperationESt6vectorIS4_SaIS4_EEEEENSt15iterator_traitsIT_E17iterator_categoryERKSC_(ptr noundef nonnull align 8 dereferenceable(8) %6)
  %16 = getelementptr inbounds %"class.__gnu_cxx::__normal_iterator", ptr %9, i32 0, i32 0
  %17 = load ptr, ptr %16, align 8
  %18 = getelementptr inbounds %"class.__gnu_cxx::__normal_iterator.0", ptr %10, i32 0, i32 0
  %19 = load ptr, ptr %18, align 8
  %20 = getelementptr inbounds %"class.__gnu_cxx::__normal_iterator.0", ptr %11, i32 0, i32 0
  %21 = load ptr, ptr %20, align 8
  call void @_ZNSt6vectorIN2cv3ccm9OperationESaIS2_EE15_M_range_insertIN9__gnu_cxx17__normal_iteratorIPKS2_S4_EEEEvNS7_IPS2_S4_EET_SD_St20forward_iterator_tag(ptr noundef nonnull align 8 dereferenceable(24) %15, ptr %17, ptr %19, ptr %21)
  ret void
}

; Function Attrs: mustprogress nounwind uwtable
define linkonce_odr hidden ptr @_ZNK9__gnu_cxx17__normal_iteratorIPN2cv3ccm9OperationESt6vectorIS3_SaIS3_EEEplEl(ptr noundef nonnull align 8 dereferenceable(8) %0, i64 noundef %1) #3 comdat align 2 {
  %3 = alloca %"class.__gnu_cxx::__normal_iterator", align 8
  %4 = alloca ptr, align 8
  %5 = alloca i64, align 8
  %6 = alloca ptr, align 8
  store ptr %0, ptr %4, align 8
  store i64 %1, ptr %5, align 8
  %7 = load ptr, ptr %4, align 8
  %8 = getelementptr inbounds %"class.__gnu_cxx::__normal_iterator", ptr %7, i32 0, i32 0
  %9 = load ptr, ptr %8, align 8
  %10 = load i64, ptr %5, align 8
  %11 = getelementptr inbounds %"class.cv::ccm::Operation", ptr %9, i64 %10
  store ptr %11, ptr %6, align 8
  call void @_ZN9__gnu_cxx17__normal_iteratorIPN2cv3ccm9OperationESt6vectorIS3_SaIS3_EEEC2ERKS4_(ptr noundef nonnull align 8 dereferenceable(8) %3, ptr noundef nonnull align 8 dereferenceable(8) %6) #12
  %12 = getelementptr inbounds %"class.__gnu_cxx::__normal_iterator", ptr %3, i32 0, i32 0
  %13 = load ptr, ptr %12, align 8
  ret ptr %13
}

; Function Attrs: mustprogress nounwind uwtable
define linkonce_odr hidden ptr @_ZNSt6vectorIN2cv3ccm9OperationESaIS2_EE5beginEv(ptr noundef nonnull align 8 dereferenceable(24) %0) #3 comdat align 2 {
  %2 = alloca %"class.__gnu_cxx::__normal_iterator", align 8
  %3 = alloca ptr, align 8
  store ptr %0, ptr %3, align 8
  %4 = load ptr, ptr %3, align 8
  %5 = getelementptr inbounds %"struct.std::_Vector_base", ptr %4, i32 0, i32 0
  %6 = getelementptr inbounds %"struct.std::_Vector_base<cv::ccm::Operation, std::allocator<cv::ccm::Operation>>::_Vector_impl_data", ptr %5, i32 0, i32 0
  call void @_ZN9__gnu_cxx17__normal_iteratorIPN2cv3ccm9OperationESt6vectorIS3_SaIS3_EEEC2ERKS4_(ptr noundef nonnull align 8 dereferenceable(8) %2, ptr noundef nonnull align 8 dereferenceable(8) %6) #12
  %7 = getelementptr inbounds %"class.__gnu_cxx::__normal_iterator", ptr %2, i32 0, i32 0
  %8 = load ptr, ptr %7, align 8
  ret ptr %8
}

; Function Attrs: mustprogress nounwind uwtable
define linkonce_odr hidden noundef i64 @_ZN9__gnu_cxxmiIPKN2cv3ccm9OperationESt6vectorIS3_SaIS3_EEEENS_17__normal_iteratorIT_T0_E15difference_typeERKSC_SF_(ptr noundef nonnull align 8 dereferenceable(8) %0, ptr noundef nonnull align 8 dereferenceable(8) %1) #3 comdat {
  %3 = alloca ptr, align 8
  %4 = alloca ptr, align 8
  store ptr %0, ptr %3, align 8
  store ptr %1, ptr %4, align 8
  %5 = load ptr, ptr %3, align 8
  %6 = call noundef nonnull align 8 dereferenceable(8) ptr @_ZNK9__gnu_cxx17__normal_iteratorIPKN2cv3ccm9OperationESt6vectorIS3_SaIS3_EEE4baseEv(ptr noundef nonnull align 8 dereferenceable(8) %5) #12
  %7 = load ptr, ptr %6, align 8
  %8 = load ptr, ptr %4, align 8
  %9 = call noundef nonnull align 8 dereferenceable(8) ptr @_ZNK9__gnu_cxx17__normal_iteratorIPKN2cv3ccm9OperationESt6vectorIS3_SaIS3_EEE4baseEv(ptr noundef nonnull align 8 dereferenceable(8) %8) #12
  %10 = load ptr, ptr %9, align 8
  %11 = ptrtoint ptr %7 to i64
  %12 = ptrtoint ptr %10 to i64
  %13 = sub i64 %11, %12
  %14 = sdiv exact i64 %13, 144
  ret i64 %14
}

; Function Attrs: mustprogress nounwind uwtable
define linkonce_odr hidden ptr @_ZNKSt6vectorIN2cv3ccm9OperationESaIS2_EE6cbeginEv(ptr noundef nonnull align 8 dereferenceable(24) %0) #3 comdat align 2 {
  %2 = alloca %"class.__gnu_cxx::__normal_iterator.0", align 8
  %3 = alloca ptr, align 8
  store ptr %0, ptr %3, align 8
  %4 = load ptr, ptr %3, align 8
  %5 = getelementptr inbounds %"struct.std::_Vector_base", ptr %4, i32 0, i32 0
  %6 = getelementptr inbounds %"struct.std::_Vector_base<cv::ccm::Operation, std::allocator<cv::ccm::Operation>>::_Vector_impl_data", ptr %5, i32 0, i32 0
  call void @_ZN9__gnu_cxx17__normal_iteratorIPKN2cv3ccm9OperationESt6vectorIS3_SaIS3_EEEC2ERKS5_(ptr noundef nonnull align 8 dereferenceable(8) %2, ptr noundef nonnull align 8 dereferenceable(8) %6) #12
  %7 = getelementptr inbounds %"class.__gnu_cxx::__normal_iterator.0", ptr %2, i32 0, i32 0
  %8 = load ptr, ptr %7, align 8
  ret ptr %8
}

; Function Attrs: mustprogress nounwind uwtable
define linkonce_odr hidden void @_ZN9__gnu_cxx17__normal_iteratorIPKN2cv3ccm9OperationESt6vectorIS3_SaIS3_EEEC2ERKS5_(ptr noundef nonnull align 8 dereferenceable(8) %0, ptr noundef nonnull align 8 dereferenceable(8) %1) unnamed_addr #3 comdat align 2 {
  %3 = alloca ptr, align 8
  %4 = alloca ptr, align 8
  store ptr %0, ptr %3, align 8
  store ptr %1, ptr %4, align 8
  %5 = load ptr, ptr %3, align 8
  %6 = getelementptr inbounds %"class.__gnu_cxx::__normal_iterator.0", ptr %5, i32 0, i32 0
  %7 = load ptr, ptr %4, align 8
  %8 = load ptr, ptr %7, align 8
  store ptr %8, ptr %6, align 8
  ret void
}

; Function Attrs: mustprogress nounwind uwtable
define linkonce_odr hidden noundef nonnull align 8 dereferenceable(8) ptr @_ZNK9__gnu_cxx17__normal_iteratorIPN2cv3ccm9OperationESt6vectorIS3_SaIS3_EEE4baseEv(ptr noundef nonnull align 8 dereferenceable(8) %0) #3 comdat align 2 {
  %2 = alloca ptr, align 8
  store ptr %0, ptr %2, align 8
  %3 = load ptr, ptr %2, align 8
  %4 = getelementptr inbounds %"class.__gnu_cxx::__normal_iterator", ptr %3, i32 0, i32 0
  ret ptr %4
}

; Function Attrs: mustprogress nounwind uwtable
define linkonce_odr hidden void @_ZN9__gnu_cxx17__normal_iteratorIPN2cv3ccm9OperationESt6vectorIS3_SaIS3_EEEC2ERKS4_(ptr noundef nonnull align 8 dereferenceable(8) %0, ptr noundef nonnull align 8 dereferenceable(8) %1) unnamed_addr #3 comdat align 2 {
  %3 = alloca ptr, align 8
  %4 = alloca ptr, align 8
  store ptr %0, ptr %3, align 8
  store ptr %1, ptr %4, align 8
  %5 = load ptr, ptr %3, align 8
  %6 = getelementptr inbounds %"class.__gnu_cxx::__normal_iterator", ptr %5, i32 0, i32 0
  %7 = load ptr, ptr %4, align 8
  %8 = load ptr, ptr %7, align 8
  store ptr %8, ptr %6, align 8
  ret void
}

; Function Attrs: mustprogress uwtable
define linkonce_odr hidden ptr @_ZNSt6vectorIN2cv3ccm9OperationESaIS2_EE6insertIN9__gnu_cxx17__normal_iteratorIPKS2_S4_EEvEENS7_IPS2_S4_EESA_T_SD_(ptr noundef nonnull align 8 dereferenceable(24) %0, ptr %1, ptr %2, ptr %3) #0 comdat align 2 {
  %5 = alloca %"class.__gnu_cxx::__normal_iterator", align 8
  %6 = alloca %"class.__gnu_cxx::__normal_iterator.0", align 8
  %7 = alloca %"class.__gnu_cxx::__normal_iterator.0", align 8
  %8 = alloca %"class.__gnu_cxx::__normal_iterator.0", align 8
  %9 = alloca ptr, align 8
  %10 = alloca i64, align 8
  %11 = alloca %"class.__gnu_cxx::__normal_iterator.0", align 8
  %12 = alloca %"class.__gnu_cxx::__normal_iterator", align 8
  %13 = alloca %"class.__gnu_cxx::__normal_iterator", align 8
  %14 = alloca %"class.__gnu_cxx::__normal_iterator.0", align 8
  %15 = alloca %"class.__gnu_cxx::__normal_iterator.0", align 8
  %16 = alloca %"class.__gnu_cxx::__normal_iterator", align 8
  %17 = getelementptr inbounds %"class.__gnu_cxx::__normal_iterator.0", ptr %6, i32 0, i32 0
  store ptr %1, ptr %17, align 8
  %18 = getelementptr inbounds %"class.__gnu_cxx::__normal_iterator.0", ptr %7, i32 0, i32 0
  store ptr %2, ptr %18, align 8
  %19 = getelementptr inbounds %"class.__gnu_cxx::__normal_iterator.0", ptr %8, i32 0, i32 0
  store ptr %3, ptr %19, align 8
  store ptr %0, ptr %9, align 8
  %20 = load ptr, ptr %9, align 8
  %21 = call ptr @_ZNKSt6vectorIN2cv3ccm9OperationESaIS2_EE6cbeginEv(ptr noundef nonnull align 8 dereferenceable(24) %20) #12
  %22 = getelementptr inbounds %"class.__gnu_cxx::__normal_iterator.0", ptr %11, i32 0, i32 0
  store ptr %21, ptr %22, align 8
  %23 = call noundef i64 @_ZN9__gnu_cxxmiIPKN2cv3ccm9OperationESt6vectorIS3_SaIS3_EEEENS_17__normal_iteratorIT_T0_E15difference_typeERKSC_SF_(ptr noundef nonnull align 8 dereferenceable(8) %6, ptr noundef nonnull align 8 dereferenceable(8) %11) #12
  store i64 %23, ptr %10, align 8
  %24 = call ptr @_ZNSt6vectorIN2cv3ccm9OperationESaIS2_EE5beginEv(ptr noundef nonnull align 8 dereferenceable(24) %20) #12
  %25 = getelementptr inbounds %"class.__gnu_cxx::__normal_iterator", ptr %13, i32 0, i32 0
  store ptr %24, ptr %25, align 8
  %26 = load i64, ptr %10, align 8
  %27 = call ptr @_ZNK9__gnu_cxx17__normal_iteratorIPN2cv3ccm9OperationESt6vectorIS3_SaIS3_EEEplEl(ptr noundef nonnull align 8 dereferenceable(8) %13, i64 noundef %26) #12
  %28 = getelementptr inbounds %"class.__gnu_cxx::__normal_iterator", ptr %12, i32 0, i32 0
  store ptr %27, ptr %28, align 8
  call void @llvm.memcpy.p0.p0.i64(ptr align 8 %14, ptr align 8 %7, i64 8, i1 false)
  call void @llvm.memcpy.p0.p0.i64(ptr align 8 %15, ptr align 8 %8, i64 8, i1 false)
  %29 = getelementptr inbounds %"class.__gnu_cxx::__normal_iterator", ptr %12, i32 0, i32 0
  %30 = load ptr, ptr %29, align 8
  %31 = getelementptr inbounds %"class.__gnu_cxx::__normal_iterator.0", ptr %14, i32 0, i32 0
  %32 = load ptr, ptr %31, align 8
  %33 = getelementptr inbounds %"class.__gnu_cxx::__normal_iterator.0", ptr %15, i32 0, i32 0
  %34 = load ptr, ptr %33, align 8
  call void @_ZNSt6vectorIN2cv3ccm9OperationESaIS2_EE18_M_insert_dispatchIN9__gnu_cxx17__normal_iteratorIPKS2_S4_EEEEvNS7_IPS2_S4_EET_SD_St12__false_type(ptr noundef nonnull align 8 dereferenceable(24) %20, ptr %30, ptr %32, ptr %34)
  %35 = call ptr @_ZNSt6vectorIN2cv3ccm9OperationESaIS2_EE5beginEv(ptr noundef nonnull align 8 dereferenceable(24) %20) #12
  %36 = getelementptr inbounds %"class.__gnu_cxx::__normal_iterator", ptr %16, i32 0, i32 0
  store ptr %35, ptr %36, align 8
  %37 = load i64, ptr %10, align 8
  %38 = call ptr @_ZNK9__gnu_cxx17__normal_iteratorIPN2cv3ccm9OperationESt6vectorIS3_SaIS3_EEEplEl(ptr noundef nonnull align 8 dereferenceable(8) %16, i64 noundef %37) #12
  %39 = getelementptr inbounds %"class.__gnu_cxx::__normal_iterator", ptr %5, i32 0, i32 0
  store ptr %38, ptr %39, align 8
  %40 = getelementptr inbounds %"class.__gnu_cxx::__normal_iterator", ptr %5, i32 0, i32 0
  %41 = load ptr, ptr %40, align 8
  ret ptr %41
}

; Function Attrs: mustprogress nounwind uwtable
define linkonce_odr hidden ptr @_ZNKSt6vectorIN2cv3ccm9OperationESaIS2_EE3endEv(ptr noundef nonnull align 8 dereferenceable(24) %0) #3 comdat align 2 {
  %2 = alloca %"class.__gnu_cxx::__normal_iterator.0", align 8
  %3 = alloca ptr, align 8
  store ptr %0, ptr %3, align 8
  %4 = load ptr, ptr %3, align 8
  %5 = getelementptr inbounds %"struct.std::_Vector_base", ptr %4, i32 0, i32 0
  %6 = getelementptr inbounds %"struct.std::_Vector_base<cv::ccm::Operation, std::allocator<cv::ccm::Operation>>::_Vector_impl_data", ptr %5, i32 0, i32 1
  call void @_ZN9__gnu_cxx17__normal_iteratorIPKN2cv3ccm9OperationESt6vectorIS3_SaIS3_EEEC2ERKS5_(ptr noundef nonnull align 8 dereferenceable(8) %2, ptr noundef nonnull align 8 dereferenceable(8) %6) #12
  %7 = getelementptr inbounds %"class.__gnu_cxx::__normal_iterator.0", ptr %2, i32 0, i32 0
  %8 = load ptr, ptr %7, align 8
  ret ptr %8
}

; Function Attrs: mustprogress nounwind uwtable
define linkonce_odr hidden ptr @_ZNKSt6vectorIN2cv3ccm9OperationESaIS2_EE5beginEv(ptr noundef nonnull align 8 dereferenceable(24) %0) #3 comdat align 2 {
  %2 = alloca %"class.__gnu_cxx::__normal_iterator.0", align 8
  %3 = alloca ptr, align 8
  store ptr %0, ptr %3, align 8
  %4 = load ptr, ptr %3, align 8
  %5 = getelementptr inbounds %"struct.std::_Vector_base", ptr %4, i32 0, i32 0
  %6 = getelementptr inbounds %"struct.std::_Vector_base<cv::ccm::Operation, std::allocator<cv::ccm::Operation>>::_Vector_impl_data", ptr %5, i32 0, i32 0
  call void @_ZN9__gnu_cxx17__normal_iteratorIPKN2cv3ccm9OperationESt6vectorIS3_SaIS3_EEEC2ERKS5_(ptr noundef nonnull align 8 dereferenceable(8) %2, ptr noundef nonnull align 8 dereferenceable(8) %6) #12
  %7 = getelementptr inbounds %"class.__gnu_cxx::__normal_iterator.0", ptr %2, i32 0, i32 0
  %8 = load ptr, ptr %7, align 8
  ret ptr %8
}

; Function Attrs: mustprogress nounwind uwtable
define linkonce_odr hidden void @_ZN9__gnu_cxx17__normal_iteratorIPKN2cv3ccm9OperationESt6vectorIS3_SaIS3_EEEC2IPS3_vEERKNS0_IT_S8_EE(ptr noundef nonnull align 8 dereferenceable(8) %0, ptr noundef nonnull align 8 dereferenceable(8) %1) unnamed_addr #3 comdat align 2 {
  %3 = alloca ptr, align 8
  %4 = alloca ptr, align 8
  store ptr %0, ptr %3, align 8
  store ptr %1, ptr %4, align 8
  %5 = load ptr, ptr %3, align 8
  %6 = getelementptr inbounds %"class.__gnu_cxx::__normal_iterator.0", ptr %5, i32 0, i32 0
  %7 = load ptr, ptr %4, align 8
  %8 = call noundef nonnull align 8 dereferenceable(8) ptr @_ZNK9__gnu_cxx17__normal_iteratorIPN2cv3ccm9OperationESt6vectorIS3_SaIS3_EEE4baseEv(ptr noundef nonnull align 8 dereferenceable(8) %7) #12
  %9 = load ptr, ptr %8, align 8
  store ptr %9, ptr %6, align 8
  ret void
}

; Function Attrs: mustprogress nounwind uwtable
define linkonce_odr hidden ptr @_ZNSt6vectorIN2cv3ccm9OperationESaIS2_EE3endEv(ptr noundef nonnull align 8 dereferenceable(24) %0) #3 comdat align 2 {
  %2 = alloca %"class.__gnu_cxx::__normal_iterator", align 8
  %3 = alloca ptr, align 8
  store ptr %0, ptr %3, align 8
  %4 = load ptr, ptr %3, align 8
  %5 = getelementptr inbounds %"struct.std::_Vector_base", ptr %4, i32 0, i32 0
  %6 = getelementptr inbounds %"struct.std::_Vector_base<cv::ccm::Operation, std::allocator<cv::ccm::Operation>>::_Vector_impl_data", ptr %5, i32 0, i32 1
  call void @_ZN9__gnu_cxx17__normal_iteratorIPN2cv3ccm9OperationESt6vectorIS3_SaIS3_EEEC2ERKS4_(ptr noundef nonnull align 8 dereferenceable(8) %2, ptr noundef nonnull align 8 dereferenceable(8) %6) #12
  %7 = getelementptr inbounds %"class.__gnu_cxx::__normal_iterator", ptr %2, i32 0, i32 0
  %8 = load ptr, ptr %7, align 8
  ret ptr %8
}

; Function Attrs: mustprogress uwtable
define hidden noundef nonnull align 8 dereferenceable(32) ptr @_ZN2cv3ccm10Operations3addERKS1_(ptr noundef nonnull align 8 dereferenceable(32) %0, ptr noundef nonnull align 8 dereferenceable(32) %1) #0 align 2 {
  %3 = alloca ptr, align 8
  %4 = alloca ptr, align 8
  %5 = alloca %"class.__gnu_cxx::__normal_iterator.0", align 8
  %6 = alloca %"class.__gnu_cxx::__normal_iterator", align 8
  %7 = alloca %"class.__gnu_cxx::__normal_iterator.0", align 8
  %8 = alloca %"class.__gnu_cxx::__normal_iterator.0", align 8
  %9 = alloca %"class.__gnu_cxx::__normal_iterator", align 8
  store ptr %0, ptr %3, align 8
  store ptr %1, ptr %4, align 8
  %10 = load ptr, ptr %3, align 8
  %11 = getelementptr inbounds %"class.cv::ccm::Operations", ptr %10, i32 0, i32 1
  %12 = getelementptr inbounds %"class.cv::ccm::Operations", ptr %10, i32 0, i32 1
  %13 = call ptr @_ZNSt6vectorIN2cv3ccm9OperationESaIS2_EE3endEv(ptr noundef nonnull align 8 dereferenceable(24) %12) #12
  %14 = getelementptr inbounds %"class.__gnu_cxx::__normal_iterator", ptr %6, i32 0, i32 0
  store ptr %13, ptr %14, align 8
  call void @_ZN9__gnu_cxx17__normal_iteratorIPKN2cv3ccm9OperationESt6vectorIS3_SaIS3_EEEC2IPS3_vEERKNS0_IT_S8_EE(ptr noundef nonnull align 8 dereferenceable(8) %5, ptr noundef nonnull align 8 dereferenceable(8) %6) #12
  %15 = load ptr, ptr %4, align 8
  %16 = getelementptr inbounds %"class.cv::ccm::Operations", ptr %15, i32 0, i32 1
  %17 = call ptr @_ZNKSt6vectorIN2cv3ccm9OperationESaIS2_EE5beginEv(ptr noundef nonnull align 8 dereferenceable(24) %16) #12
  %18 = getelementptr inbounds %"class.__gnu_cxx::__normal_iterator.0", ptr %7, i32 0, i32 0
  store ptr %17, ptr %18, align 8
  %19 = load ptr, ptr %4, align 8
  %20 = getelementptr inbounds %"class.cv::ccm::Operations", ptr %19, i32 0, i32 1
  %21 = call ptr @_ZNKSt6vectorIN2cv3ccm9OperationESaIS2_EE3endEv(ptr noundef nonnull align 8 dereferenceable(24) %20) #12
  %22 = getelementptr inbounds %"class.__gnu_cxx::__normal_iterator.0", ptr %8, i32 0, i32 0
  store ptr %21, ptr %22, align 8
  %23 = getelementptr inbounds %"class.__gnu_cxx::__normal_iterator.0", ptr %5, i32 0, i32 0
  %24 = load ptr, ptr %23, align 8
  %25 = getelementptr inbounds %"class.__gnu_cxx::__normal_iterator.0", ptr %7, i32 0, i32 0
  %26 = load ptr, ptr %25, align 8
  %27 = getelementptr inbounds %"class.__gnu_cxx::__normal_iterator.0", ptr %8, i32 0, i32 0
  %28 = load ptr, ptr %27, align 8
  %29 = call ptr @_ZNSt6vectorIN2cv3ccm9OperationESaIS2_EE6insertIN9__gnu_cxx17__normal_iteratorIPKS2_S4_EEvEENS7_IPS2_S4_EESA_T_SD_(ptr noundef nonnull align 8 dereferenceable(24) %11, ptr %24, ptr %26, ptr %28)
  %30 = getelementptr inbounds %"class.__gnu_cxx::__normal_iterator", ptr %9, i32 0, i32 0
  store ptr %29, ptr %30, align 8
  ret ptr %10
}